target datalayout = "e-m:e-p270:32:32-p271:32:32-p272:64:64-i64:64-i128:128-f80:128-n8:16:32:64-S128"
target triple = "x86_64-pc-linux-gnu"

; Function Attrs: nounwind uwtable
define void @updataInfo(i32 noundef %0, i32 noundef %1, i32 noundef %2, ptr noundef %3, ptr noundef %4) #0 {
  %6 = alloca i32, align 4
  %7 = alloca i32, align 4
  %8 = alloca i32, align 4
  %9 = alloca ptr, align 8
  %10 = alloca ptr, align 8
  store i32 %0, ptr %6, align 4, !tbaa !8
  store i32 %1, ptr %7, align 4, !tbaa !8
  store i32 %2, ptr %8, align 4, !tbaa !8
  store ptr %3, ptr %9, align 8, !tbaa !10
  store ptr %4, ptr %10, align 8, !tbaa !12
  %11 = load ptr, ptr %9, align 8, !tbaa !10
  %12 = load ptr, ptr %10, align 8, !tbaa !12
  %13 = load i32, ptr %12, align 4, !tbaa !8
  %14 = load i32, ptr %8, align 4, !tbaa !8
  %15 = load i32, ptr %6, align 4, !tbaa !8
  %16 = load i32, ptr %7, align 4, !tbaa !8
  %17 = sub nsw i32 %15, %16
  %18 = call i32 @llvm.abs.i32(i32 %17, i1 true)
  %19 = sub nsw i32 %18, 1
  %20 = shl i32 %19, 2
  %21 = load i32, ptr %6, align 4, !tbaa !8
  %22 = add nsw i32 %20, %21
  %23 = call i32 @adjustInfoAfterSwap(ptr noundef %11, i32 noundef %13, i32 noundef %14, i32 noundef %22)
  %24 = load ptr, ptr %10, align 8, !tbaa !12
  store i32 %23, ptr %24, align 4, !tbaa !8
  ret void
}

; Function Attrs: nounwind uwtable
define void @arrangeQuoters_superFast_lessThen5(ptr noundef %0, i32 noundef %1, i32 noundef %2, i32 noundef %3, i32 noundef %4, i32 noundef %5, i32 noundef %6, i32 noundef %7, ptr noundef %8, ptr noundef %9) #0 {
  %11 = alloca ptr, align 8
  %12 = alloca i32, align 4
  %13 = alloca i32, align 4
  %14 = alloca i32, align 4
  %15 = alloca i32, align 4
  %16 = alloca i32, align 4
  %17 = alloca i32, align 4
  %18 = alloca i32, align 4
  %19 = alloca ptr, align 8
  %20 = alloca ptr, align 8
  %21 = alloca i32, align 4
  %22 = alloca i32, align 4
  store ptr %0, ptr %11, align 8, !tbaa !3
  store i32 %1, ptr %12, align 4, !tbaa !8
  store i32 %2, ptr %13, align 4, !tbaa !8
  store i32 %3, ptr %14, align 4, !tbaa !8
  store i32 %4, ptr %15, align 4, !tbaa !8
  store i32 %5, ptr %16, align 4, !tbaa !8
  store i32 %6, ptr %17, align 4, !tbaa !8
  store i32 %7, ptr %18, align 4, !tbaa !8
  store ptr %8, ptr %19, align 8, !tbaa !10
  store ptr %9, ptr %20, align 8, !tbaa !12
  call void @llvm.lifetime.start.p0(i64 4, ptr %21) #7
  call void @llvm.lifetime.start.p0(i64 4, ptr %22) #7
  %23 = load i32, ptr %17, align 4, !tbaa !8
  %24 = shl i32 1, %23
  store i32 %24, ptr %22, align 4, !tbaa !8
  %25 = load i32, ptr %12, align 4, !tbaa !8
  store i32 %25, ptr %21, align 4, !tbaa !8
  br label %26

26:                                               ; preds = %120, %10
  %27 = load i32, ptr %21, align 4, !tbaa !8
  %28 = icmp sge i32 %27, 0
  br i1 %28, label %29, label %123

29:                                               ; preds = %26
  %30 = load ptr, ptr %11, align 8, !tbaa !3
  %31 = load i32, ptr %21, align 4, !tbaa !8
  %32 = sext i32 %31 to i64
  %33 = getelementptr inbounds i64, ptr %30, i64 %32
  %34 = load i64, ptr %33, align 8, !tbaa !18
  %35 = load i32, ptr %17, align 4, !tbaa !8
  %36 = sext i32 %35 to i64
  %37 = getelementptr inbounds [5 x [4 x i64]], ptr @SFmask, i64 0, i64 %36
  %38 = load i32, ptr %13, align 4, !tbaa !8
  %39 = sext i32 %38 to i64
  %40 = getelementptr inbounds [4 x i64], ptr %37, i64 0, i64 %39
  %41 = load i64, ptr %40, align 8, !tbaa !18
  %42 = and i64 %34, %41
  %43 = load i32, ptr %13, align 4, !tbaa !8
  %44 = load i32, ptr %22, align 4, !tbaa !8
  %45 = mul nsw i32 %43, %44
  %46 = zext i32 %45 to i64
  %47 = shl i64 %42, %46
  %48 = load ptr, ptr %11, align 8, !tbaa !3
  %49 = load i32, ptr %21, align 4, !tbaa !8
  %50 = sext i32 %49 to i64
  %51 = getelementptr inbounds i64, ptr %48, i64 %50
  %52 = load i64, ptr %51, align 8, !tbaa !18
  %53 = load i32, ptr %17, align 4, !tbaa !8
  %54 = sext i32 %53 to i64
  %55 = getelementptr inbounds [5 x [4 x i64]], ptr @SFmask, i64 0, i64 %54
  %56 = load i32, ptr %14, align 4, !tbaa !8
  %57 = sext i32 %56 to i64
  %58 = getelementptr inbounds [4 x i64], ptr %55, i64 0, i64 %57
  %59 = load i64, ptr %58, align 8, !tbaa !18
  %60 = and i64 %52, %59
  %61 = load i32, ptr %14, align 4, !tbaa !8
  %62 = load i32, ptr %22, align 4, !tbaa !8
  %63 = mul nsw i32 %61, %62
  %64 = zext i32 %63 to i64
  %65 = shl i64 %60, %64
  %66 = load i32, ptr %22, align 4, !tbaa !8
  %67 = zext i32 %66 to i64
  %68 = lshr i64 %65, %67
  %69 = or i64 %47, %68
  %70 = load ptr, ptr %11, align 8, !tbaa !3
  %71 = load i32, ptr %21, align 4, !tbaa !8
  %72 = sext i32 %71 to i64
  %73 = getelementptr inbounds i64, ptr %70, i64 %72
  %74 = load i64, ptr %73, align 8, !tbaa !18
  %75 = load i32, ptr %17, align 4, !tbaa !8
  %76 = sext i32 %75 to i64
  %77 = getelementptr inbounds [5 x [4 x i64]], ptr @SFmask, i64 0, i64 %76
  %78 = load i32, ptr %15, align 4, !tbaa !8
  %79 = sext i32 %78 to i64
  %80 = getelementptr inbounds [4 x i64], ptr %77, i64 0, i64 %79
  %81 = load i64, ptr %80, align 8, !tbaa !18
  %82 = and i64 %74, %81
  %83 = load i32, ptr %15, align 4, !tbaa !8
  %84 = load i32, ptr %22, align 4, !tbaa !8
  %85 = mul nsw i32 %83, %84
  %86 = zext i32 %85 to i64
  %87 = shl i64 %82, %86
  %88 = load i32, ptr %22, align 4, !tbaa !8
  %89 = mul nsw i32 2, %88
  %90 = zext i32 %89 to i64
  %91 = lshr i64 %87, %90
  %92 = or i64 %69, %91
  %93 = load ptr, ptr %11, align 8, !tbaa !3
  %94 = load i32, ptr %21, align 4, !tbaa !8
  %95 = sext i32 %94 to i64
  %96 = getelementptr inbounds i64, ptr %93, i64 %95
  %97 = load i64, ptr %96, align 8, !tbaa !18
  %98 = load i32, ptr %17, align 4, !tbaa !8
  %99 = sext i32 %98 to i64
  %100 = getelementptr inbounds [5 x [4 x i64]], ptr @SFmask, i64 0, i64 %99
  %101 = load i32, ptr %16, align 4, !tbaa !8
  %102 = sext i32 %101 to i64
  %103 = getelementptr inbounds [4 x i64], ptr %100, i64 0, i64 %102
  %104 = load i64, ptr %103, align 8, !tbaa !18
  %105 = and i64 %97, %104
  %106 = load i32, ptr %16, align 4, !tbaa !8
  %107 = load i32, ptr %22, align 4, !tbaa !8
  %108 = mul nsw i32 %106, %107
  %109 = zext i32 %108 to i64
  %110 = shl i64 %105, %109
  %111 = load i32, ptr %22, align 4, !tbaa !8
  %112 = mul nsw i32 3, %111
  %113 = zext i32 %112 to i64
  %114 = lshr i64 %110, %113
  %115 = or i64 %92, %114
  %116 = load ptr, ptr %11, align 8, !tbaa !3
  %117 = load i32, ptr %21, align 4, !tbaa !8
  %118 = sext i32 %117 to i64
  %119 = getelementptr inbounds i64, ptr %116, i64 %118
  store i64 %115, ptr %119, align 8, !tbaa !18
  br label %120

120:                                              ; preds = %29
  %121 = load i32, ptr %21, align 4, !tbaa !8
  %122 = add nsw i32 %121, -1
  store i32 %122, ptr %21, align 4, !tbaa !8
  br label %26, !llvm.loop !20

123:                                              ; preds = %26
  %124 = load i32, ptr %13, align 4, !tbaa !8
  %125 = load i32, ptr %14, align 4, !tbaa !8
  %126 = load i32, ptr %17, align 4, !tbaa !8
  %127 = load ptr, ptr %19, align 8, !tbaa !10
  %128 = load ptr, ptr %20, align 8, !tbaa !12
  call void @updataInfo(i32 noundef %124, i32 noundef %125, i32 noundef %126, ptr noundef %127, ptr noundef %128)
  call void @llvm.lifetime.end.p0(i64 4, ptr %22) #7
  call void @llvm.lifetime.end.p0(i64 4, ptr %21) #7
  ret void
}