; Function Attrs: nounwind uwtable
define void @arrangeQuoters_superFast_lessThen5(ptr noundef captures(none) %0, i32 noundef %1, i32 noundef %2, i32 noundef %3, i32 noundef %4, i32 noundef %5, i32 noundef %6, i32 noundef %7, ptr noundef %8, ptr noundef captures(none) %9) local_unnamed_addr #0 {
  %11 = icmp sgt i32 %1, -1
  br i1 %11, label %.lr.ph, label %._crit_edge

.lr.ph:                                           ; preds = %10
  %12 = shl nuw i32 1, %6
  %13 = sext i32 %6 to i64
  %14 = sext i32 %2 to i64
  %15 = getelementptr inbounds [5 x [4 x i64]], ptr @SFmask, i64 0, i64 %13, i64 %14
  %16 = load i64, ptr %15, align 8, !tbaa !11
  %17 = shl i32 %2, %6
  %18 = zext nneg i32 %17 to i64
  %19 = sext i32 %3 to i64
  %20 = getelementptr inbounds [5 x [4 x i64]], ptr @SFmask, i64 0, i64 %13, i64 %19
  %21 = load i64, ptr %20, align 8, !tbaa !11
  %22 = shl i32 %3, %6
  %23 = zext nneg i32 %22 to i64
  %24 = zext nneg i32 %12 to i64
  %25 = sext i32 %4 to i64
  %26 = getelementptr inbounds [5 x [4 x i64]], ptr @SFmask, i64 0, i64 %13, i64 %25
  %27 = load i64, ptr %26, align 8, !tbaa !11
  %28 = shl i32 %4, %6
  %29 = zext nneg i32 %28 to i64
  %30 = shl i32 2, %6
  %31 = zext nneg i32 %30 to i64
  %32 = sext i32 %5 to i64
  %33 = getelementptr inbounds [5 x [4 x i64]], ptr @SFmask, i64 0, i64 %13, i64 %32
  %34 = load i64, ptr %33, align 8, !tbaa !11
  %35 = shl i32 %5, %6
  %36 = zext nneg i32 %35 to i64
  %37 = shl i32 3, %6
  %38 = zext nneg i32 %37 to i64
  %39 = zext nneg i32 %1 to i64
  br label %40

40:                                               ; preds = %.lr.ph, %40
  %indvars.iv = phi i64 [ %39, %.lr.ph ], [ %indvars.iv.next, %40 ]
  %41 = getelementptr inbounds nuw i64, ptr %0, i64 %indvars.iv
  %42 = load i64, ptr %41, align 8, !tbaa !11
  %43 = and i64 %16, %42
  %44 = shl i64 %43, %18
  %45 = and i64 %21, %42
  %46 = shl i64 %45, %23
  %47 = lshr i64 %46, %24
  %48 = or i64 %47, %44
  %49 = and i64 %27, %42
  %50 = shl i64 %49, %29
  %51 = lshr i64 %50, %31
  %52 = or i64 %48, %51
  %53 = and i64 %34, %42
  %54 = shl i64 %53, %36
  %55 = lshr i64 %54, %38
  %56 = or i64 %52, %55
  store i64 %56, ptr %41, align 8, !tbaa !11
  %indvars.iv.next = add nsw i64 %indvars.iv, -1
  %.not = icmp eq i64 %indvars.iv, 0
  br i1 %.not, label %._crit_edge, label %40, !llvm.loop !13

._crit_edge:                                      ; preds = %40, %10
  %57 = load i32, ptr %9, align 4, !tbaa !6
  %58 = sub nsw i32 %2, %3
  %59 = tail call i32 @llvm.abs.i32(i32 %58, i1 true)
  %60 = shl i32 %59, 2
  %61 = add i32 %2, -4
  %62 = add i32 %61, %60
  %63 = tail call i32 @adjustInfoAfterSwap(ptr noundef %8, i32 noundef %57, i32 noundef %6, i32 noundef %62) #9
  store i32 %63, ptr %9, align 4, !tbaa !6
  ret void
}